	.file	"callgen.c"
	.section	.rodata
.LC0:
	.string	"addfn %lu,%lu\n"
	.text
	.globl	addfn
	.type	addfn, @function
addfn:
.LFB0:
	.cfi_startproc
	pushq	%rbp
	.cfi_def_cfa_offset 16
	.cfi_offset 6, -16
	movq	%rsp, %rbp
	.cfi_def_cfa_register 6
	subq	$32, %rsp
	movq	%rdi, -24(%rbp)
	movq	%rsi, -32(%rbp)
	movq	-24(%rbp), %rdx
	movq	-32(%rbp), %rax
	addq	%rdx, %rax
	movq	%rax, -8(%rbp)
	movq	-32(%rbp), %rdx
	movq	-24(%rbp), %rax
	movq	%rax, %rsi
	leaq	.LC0(%rip), %rdi
	movl	$0, %eax
	call	printf@PLT
	movq	-8(%rbp), %rax
	leave
	.cfi_def_cfa 7, 8
	ret
	.cfi_endproc
.LFE0:
	.size	addfn, .-addfn
	.globl	multfn
	.type	multfn, @function
multfn:
.LFB1:
	.cfi_startproc
	pushq	%rbp
	.cfi_def_cfa_offset 16
	.cfi_offset 6, -16
	movq	%rsp, %rbp
	.cfi_def_cfa_register 6
	movl	%edi, -4(%rbp)
	movl	%esi, -8(%rbp)
	movl	-4(%rbp), %eax
	imull	-8(%rbp), %eax
	popq	%rbp
	.cfi_def_cfa 7, 8
	ret
	.cfi_endproc
.LFE1:
	.size	multfn, .-multfn
	.section	.rodata
.LC1:
	.string	"main %lu,%lu\n"
.LC2:
	.string	"res = %lu\n"
	.text
	.globl	main
	.type	main, @function
main:
.LFB2:
	.cfi_startproc
	pushq	%rbp
	.cfi_def_cfa_offset 16
	.cfi_offset 6, -16
	movq	%rsp, %rbp
	.cfi_def_cfa_register 6
	subq	$32, %rsp
	leaq	addfn(%rip), %rax
	movq	%rax, -8(%rbp)
	movq	$5, -16(%rbp)
	movq	$3, -24(%rbp)
	movq	$0, -32(%rbp)
	movq	-24(%rbp), %rdx
	movq	-16(%rbp), %rax
	movq	%rax, %rsi
	leaq	.LC1(%rip), %rdi
	movl	$0, %eax
	call	printf@PLT
#APP
# 35 "callgen.c" 1
	push %rax 
	movq -16(%rbp), %rdi 
	movq -24(%rbp), %rsi 
	call addfn 
	movq %rax, %rax 
	pop %rax
# 0 "" 2
#NO_APP
	movq	%rax, -32(%rbp)
	movq	-32(%rbp), %rax
	movq	%rax, %rsi
	leaq	.LC2(%rip), %rdi
	movl	$0, %eax
	call	printf@PLT
	movq	-24(%rbp), %rdx
	movq	-16(%rbp), %rax
	movq	%rdx, %rsi
	movq	%rax, %rdi
	call	addfn
	movq	%rax, -32(%rbp)
	movq	-32(%rbp), %rax
	movq	%rax, %rsi
	leaq	.LC2(%rip), %rdi
	movl	$0, %eax
	call	printf@PLT
	nop
	leave
	.cfi_def_cfa 7, 8
	ret
	.cfi_endproc
.LFE2:
	.size	main, .-main
	.ident	"GCC: (Debian 6.3.0-18+deb9u1) 6.3.0 20170516"
	.section	.note.GNU-stack,"",@progbits
